target datalayout = "e-m:e-p270:32:32-p271:32:32-p272:64:64-i64:64-i128:128-f80:128-n8:16:32:64-S128"
target triple = "x86_64-pc-linux-gnu"

%struct.JNINativeInterface_ = type { ptr, ptr, ptr, ptr, ptr, ptr, ptr, ptr, ptr, ptr, ptr, ptr, ptr, ptr, ptr, ptr, ptr, ptr, ptr, ptr, ptr, ptr, ptr, ptr, ptr, ptr, ptr, ptr, ptr, ptr, ptr, ptr, ptr, ptr, ptr, ptr, ptr, ptr, ptr, ptr, ptr, ptr, ptr, ptr, ptr, ptr, ptr, ptr, ptr, ptr, ptr, ptr, ptr, ptr, ptr, ptr, ptr, ptr, ptr, ptr, ptr, ptr, ptr, ptr, ptr, ptr, ptr, ptr, ptr, ptr, ptr, ptr, ptr, ptr, ptr, ptr, ptr, ptr, ptr, ptr, ptr, ptr, ptr, ptr, ptr, ptr, ptr, ptr, ptr, ptr, ptr, ptr, ptr, ptr, ptr, ptr, ptr, ptr, ptr, ptr, ptr, ptr, ptr, ptr, ptr, ptr, ptr, ptr, ptr, ptr, ptr, ptr, ptr, ptr, ptr, ptr, ptr, ptr, ptr, ptr, ptr, ptr, ptr, ptr, ptr, ptr, ptr, ptr, ptr, ptr, ptr, ptr, ptr, ptr, ptr, ptr, ptr, ptr, ptr, ptr, ptr, ptr, ptr, ptr, ptr, ptr, ptr, ptr, ptr, ptr, ptr, ptr, ptr, ptr, ptr, ptr, ptr, ptr, ptr, ptr, ptr, ptr, ptr, ptr, ptr, ptr, ptr, ptr, ptr, ptr, ptr, ptr, ptr, ptr, ptr, ptr, ptr, ptr, ptr, ptr, ptr, ptr, ptr, ptr, ptr, ptr, ptr, ptr, ptr, ptr, ptr, ptr, ptr, ptr, ptr, ptr, ptr, ptr, ptr, ptr, ptr, ptr, ptr, ptr, ptr, ptr, ptr, ptr, ptr, ptr, ptr, ptr, ptr, ptr, ptr, ptr, ptr, ptr, ptr, ptr, ptr, ptr, ptr, ptr, ptr, ptr, ptr, ptr, ptr, ptr, ptr, ptr, ptr, ptr, ptr }

@getRgbID = internal global ptr null, align 8
@xorColorID = internal global ptr null, align 8

; Function Attrs: nounwind uwtable
define hidden i32 @GrPrim_CompGetXorColor(ptr noundef %0, ptr noundef %1) #0 {
  %3 = alloca ptr, align 8
  %4 = alloca ptr, align 8
  %5 = alloca ptr, align 8
  %6 = alloca i32, align 4
  store ptr %0, ptr %3, align 8
  store ptr %1, ptr %4, align 8
  %7 = load ptr, ptr %3, align 8
  %8 = load ptr, ptr %7, align 8
  %9 = getelementptr inbounds %struct.JNINativeInterface_, ptr %8, i32 0, i32 95
  %10 = load ptr, ptr %9, align 8
  %11 = load ptr, ptr %3, align 8
  %12 = load ptr, ptr %4, align 8
  %13 = load ptr, ptr @xorColorID, align 8
  %14 = call ptr %10(ptr noundef %11, ptr noundef %12, ptr noundef %13)
  store ptr %14, ptr %5, align 8
  %15 = load ptr, ptr %3, align 8
  %16 = load ptr, ptr %15, align 8
  %17 = getelementptr inbounds %struct.JNINativeInterface_, ptr %16, i32 0, i32 49
  %18 = load ptr, ptr %17, align 8
  %19 = load ptr, ptr %3, align 8
  %20 = load ptr, ptr %5, align 8
  %21 = load ptr, ptr @getRgbID, align 8
  %22 = call i32 (ptr, ptr, ptr, ...) %18(ptr noundef %19, ptr noundef %20, ptr noundef %21)
  store i32 %22, ptr %6, align 4
  %23 = load ptr, ptr %3, align 8
  %24 = load ptr, ptr %23, align 8
  %25 = getelementptr inbounds %struct.JNINativeInterface_, ptr %24, i32 0, i32 23
  %26 = load ptr, ptr %25, align 8
  %27 = load ptr, ptr %3, align 8
  %28 = load ptr, ptr %5, align 8
  call void %26(ptr noundef %27, ptr noundef %28)
  %29 = load i32, ptr %6, align 4
  ret i32 %29
}