; Function Attrs: nounwind uwtable
define hidden i32 @GrPrim_CompGetXorColor(ptr noundef %0, ptr noundef %1) local_unnamed_addr #0 {
  %3 = load ptr, ptr %0, align 8
  %4 = getelementptr inbounds i8, ptr %3, i64 760
  %5 = load ptr, ptr %4, align 8
  %6 = load ptr, ptr @xorColorID, align 8
  %7 = tail call ptr %5(ptr noundef nonnull %0, ptr noundef %1, ptr noundef %6) #6
  %8 = load ptr, ptr %0, align 8
  %9 = getelementptr inbounds i8, ptr %8, i64 392
  %10 = load ptr, ptr %9, align 8
  %11 = load ptr, ptr @getRgbID, align 8
  %12 = tail call i32 (ptr, ptr, ptr, ...) %10(ptr noundef nonnull %0, ptr noundef %7, ptr noundef %11) #6
  %13 = load ptr, ptr %0, align 8
  %14 = getelementptr inbounds i8, ptr %13, i64 184
  %15 = load ptr, ptr %14, align 8
  tail call void %15(ptr noundef nonnull %0, ptr noundef %7) #6
  ret i32 %12
}